; Function Attrs: mustprogress nofree norecurse nosync nounwind willreturn memory(argmem: write) uwtable
define hidden void @_ZN2cv8ximgproc28FastGlobalSmootherFilterImpl20VerticalPass_ParBodyC2ERS1_RNS_3MatEii(ptr noundef nonnull writeonly align 8 captures(none) dereferenceable(36) initializes((0, 36)) %0, ptr noundef nonnull align 8 dereferenceable(424) %1, ptr noundef nonnull align 8 dereferenceable(96) %2, i32 noundef %3, i32 noundef %4) unnamed_addr #10 align 2 {
  store ptr getelementptr inbounds nuw inrange(-16, 24) (i8, ptr @_ZTVN2cv8ximgproc28FastGlobalSmootherFilterImpl20VerticalPass_ParBodyE, i64 16), ptr %0, align 8, !tbaa !33
  %6 = getelementptr inbounds nuw i8, ptr %0, i64 8
  store ptr %1, ptr %6, align 8, !tbaa !101
  %7 = getelementptr inbounds nuw i8, ptr %0, i64 16
  store ptr %2, ptr %7, align 8, !tbaa !103
  %8 = getelementptr inbounds nuw i8, ptr %0, i64 24
  store i32 %3, ptr %8, align 8, !tbaa !104
  %9 = getelementptr inbounds nuw i8, ptr %0, i64 32
  store i32 %4, ptr %9, align 8, !tbaa !105
  %10 = sitofp i32 %4 to double
  %11 = sitofp i32 %3 to double
  %12 = fdiv double %10, %11
  %13 = tail call double @llvm.ceil.f64(double %12)
  %14 = fptosi double %13 to i32
  %15 = getelementptr inbounds nuw i8, ptr %0, i64 28
  store i32 %14, ptr %15, align 4, !tbaa !106
  ret void
}